target datalayout = "e-m:e-p270:32:32-p271:32:32-p272:64:64-i64:64-i128:128-f80:128-n8:16:32:64-S128"
target triple = "x86_64-pc-linux-gnu"

%struct.X509_VERIFY_PARAM_st = type { ptr, i64, i64, i64, i32, i32, i32, ptr, ptr }

@param_table = internal global ptr null, align 8

; Function Attrs: nounwind uwtable
define hidden ptr @X509_VERIFY_PARAM_get0(i32 noundef %0) #0 {
  %2 = alloca ptr, align 8
  %3 = alloca i32, align 4
  %4 = alloca i32, align 4
  %5 = alloca i32, align 4
  store i32 %0, ptr %3, align 4, !tbaa !35
  call void @llvm.lifetime.start.p0(i64 4, ptr %4) #7
  store i32 5, ptr %4, align 4, !tbaa !35
  %6 = load i32, ptr %3, align 4, !tbaa !35
  %7 = load i32, ptr %4, align 4, !tbaa !35
  %8 = icmp slt i32 %6, %7
  br i1 %8, label %9, label %13

9:                                                ; preds = %1
  %10 = load i32, ptr %3, align 4, !tbaa !35
  %11 = sext i32 %10 to i64
  %12 = getelementptr inbounds %struct.X509_VERIFY_PARAM_st, ptr @default_table, i64 %11
  store ptr %12, ptr %2, align 8
  store i32 1, ptr %5, align 4
  br label %20

13:                                               ; preds = %1
  %14 = load ptr, ptr @param_table, align 8, !tbaa !49
  %15 = load i32, ptr %3, align 4, !tbaa !35
  %16 = load i32, ptr %4, align 4, !tbaa !35
  %17 = sub nsw i32 %15, %16
  %18 = sext i32 %17 to i64
  %19 = call ptr @sk_value(ptr noundef %14, i64 noundef %18)
  store ptr %19, ptr %2, align 8
  store i32 1, ptr %5, align 4
  br label %20

20:                                               ; preds = %13, %9
  call void @llvm.lifetime.end.p0(i64 4, ptr %4) #7
  %21 = load ptr, ptr %2, align 8
  ret ptr %21
}