; Function Attrs: nounwind uwtable
define hidden ptr @X509_VERIFY_PARAM_get0(i32 noundef %0) local_unnamed_addr #0 {
  %2 = icmp slt i32 %0, 5
  br i1 %2, label %3, label %6

3:                                                ; preds = %1
  %4 = sext i32 %0 to i64
  %5 = getelementptr inbounds %struct.X509_VERIFY_PARAM_st, ptr @default_table, i64 %4
  br label %11

6:                                                ; preds = %1
  %7 = load ptr, ptr @param_table, align 8, !tbaa !37
  %8 = add nsw i32 %0, -5
  %9 = zext nneg i32 %8 to i64
  %10 = tail call ptr @sk_value(ptr noundef %7, i64 noundef %9) #16
  br label %11

11:                                               ; preds = %6, %3
  %.0 = phi ptr [ %5, %3 ], [ %10, %6 ]
  ret ptr %.0
}